target datalayout = "e-m:e-p270:32:32-p271:32:32-p272:64:64-i64:64-i128:128-f80:128-n8:16:32:64-S128"
target triple = "x86_64-pc-linux-gnu"

%"class.absl::log_internal::LogMessage::OstreamView" = type { %"class.std::basic_streambuf", ptr, %"class.absl::Span", %"class.absl::Span", %"class.absl::Span" }
%"class.std::basic_streambuf" = type { ptr, ptr, ptr, ptr, ptr, ptr, ptr, %"class.std::locale" }
%"class.std::locale" = type { ptr }
%"class.absl::Span" = type { ptr, i64 }
%"class.absl::log_internal::LogMessage" = type { %"class.absl::base_internal::ErrnoSaver", %"class.std::unique_ptr" }
%"class.absl::base_internal::ErrnoSaver" = type { i32 }
%"class.std::unique_ptr" = type { %"struct.std::__uniq_ptr_data" }
%"struct.std::__uniq_ptr_data" = type { %"class.std::__uniq_ptr_impl" }
%"class.std::__uniq_ptr_impl" = type { %"class.std::tuple" }
%"class.std::tuple" = type { %"struct.std::_Tuple_impl" }
%"struct.std::_Tuple_impl" = type { %"struct.std::_Head_base.1" }
%"struct.std::_Head_base.1" = type { ptr }
%"struct.absl::log_internal::LogMessage::LogMessageData" = type { %"class.absl::LogEntry", i8, i8, i8, %"class.absl::InlinedVector", i8, %"class.std::basic_ostream", %"struct.std::array", %"class.absl::Span", %"struct.std::array" }
%"class.absl::LogEntry" = type { %"class.std::basic_string_view", %"class.std::basic_string_view", i32, i8, i32, i32, %"class.absl::Time", i32, %"class.absl::Span.2", i64, %"class.std::basic_string_view", %"class.std::__cxx11::basic_string" }
%"class.absl::Time" = type { %"class.absl::Duration" }
%"class.absl::Duration" = type { %"class.absl::Duration::HiRep", i32 }
%"class.absl::Duration::HiRep" = type { i32, i32 }
%"class.absl::Span.2" = type { ptr, i64 }
%"class.std::basic_string_view" = type { i64, ptr }
%"class.std::__cxx11::basic_string" = type { %"struct.std::__cxx11::basic_string<char>::_Alloc_hider", i64, %union.anon }
%"struct.std::__cxx11::basic_string<char>::_Alloc_hider" = type { ptr }
%union.anon = type { i64, [8 x i8] }
%"class.absl::InlinedVector" = type { %"class.absl::inlined_vector_internal::Storage" }
%"class.absl::inlined_vector_internal::Storage" = type { %"class.absl::container_internal::CompressedTuple", %"union.absl::inlined_vector_internal::Storage<absl::LogSink *, 16, std::allocator<absl::LogSink *>>::Data" }
%"class.absl::container_internal::CompressedTuple" = type { %"struct.absl::container_internal::internal_compressed_tuple::CompressedTupleImpl" }
%"struct.absl::container_internal::internal_compressed_tuple::CompressedTupleImpl" = type { %"struct.absl::container_internal::internal_compressed_tuple::Storage.6" }
%"struct.absl::container_internal::internal_compressed_tuple::Storage.6" = type { i64 }
%"union.absl::inlined_vector_internal::Storage<absl::LogSink *, 16, std::allocator<absl::LogSink *>>::Data" = type { %"struct.absl::inlined_vector_internal::Storage<absl::LogSink *, 16, std::allocator<absl::LogSink *>>::Allocated", [112 x i8] }
%"struct.absl::inlined_vector_internal::Storage<absl::LogSink *, 16, std::allocator<absl::LogSink *>>::Allocated" = type { ptr, i64 }
%"class.std::basic_ostream" = type { ptr, %"class.std::basic_ios" }
%"class.std::basic_ios" = type { %"class.std::ios_base", ptr, i8, i8, ptr, ptr, ptr, ptr }
%"class.std::ios_base" = type { ptr, i64, i64, i32, i32, i32, ptr, %"struct.std::ios_base::_Words", [8 x %"struct.std::ios_base::_Words"], i32, ptr, %"class.std::locale" }
%"struct.std::ios_base::_Words" = type { ptr, i64 }
%"struct.std::array" = type { [15000 x i8] }

@_ZN4absl12log_internal10LogMessage11OstreamViewC1ERNS1_14LogMessageDataE = dso_local unnamed_addr alias void (ptr, ptr), ptr @_ZN4absl12log_internal10LogMessage11OstreamViewC2ERNS1_14LogMessageDataE
@_ZN4absl12log_internal10LogMessage11OstreamViewD1Ev = dso_local unnamed_addr alias void (ptr), ptr @_ZN4absl12log_internal10LogMessage11OstreamViewD2Ev

; Function Attrs: mustprogress nounwind uwtable
define linkonce_odr dso_local noundef nonnull align 8 dereferenceable(8) ptr @_ZNSt10_Head_baseILm0EPN4absl12log_internal10LogMessage14LogMessageDataELb0EE7_M_headERKS5_(ptr noundef nonnull align 8 dereferenceable(8) %0) #3 comdat align 2 {
  %2 = alloca ptr, align 8
  store ptr %0, ptr %2, align 8, !tbaa !252
  %3 = load ptr, ptr %2, align 8, !tbaa !252
  %4 = getelementptr inbounds nuw %"struct.std::_Head_base.1", ptr %3, i32 0, i32 0
  ret ptr %4
}

; Function Attrs: mustprogress nounwind uwtable
define linkonce_odr dso_local noundef nonnull align 8 dereferenceable(8) ptr @_ZNSt11_Tuple_implILm0EJPN4absl12log_internal10LogMessage14LogMessageDataESt14default_deleteIS3_EEE7_M_headERKS7_(ptr noundef nonnull align 8 dereferenceable(8) %0) #3 comdat align 2 {
  %2 = alloca ptr, align 8
  store ptr %0, ptr %2, align 8, !tbaa !248
  %3 = load ptr, ptr %2, align 8, !tbaa !248
  %4 = call noundef nonnull align 8 dereferenceable(8) ptr @_ZNSt10_Head_baseILm0EPN4absl12log_internal10LogMessage14LogMessageDataELb0EE7_M_headERKS5_(ptr noundef nonnull align 8 dereferenceable(8) %3) #24
  ret ptr %4
}

; Function Attrs: mustprogress nounwind uwtable
define linkonce_odr dso_local noundef nonnull align 8 dereferenceable(8) ptr @_ZSt12__get_helperILm0EPN4absl12log_internal10LogMessage14LogMessageDataEJSt14default_deleteIS3_EEERKT0_RKSt11_Tuple_implIXT_EJS7_DpT1_EE(ptr noundef nonnull align 8 dereferenceable(8) %0) #3 comdat {
  %2 = alloca ptr, align 8
  store ptr %0, ptr %2, align 8, !tbaa !248
  %3 = load ptr, ptr %2, align 8, !tbaa !248
  %4 = call noundef nonnull align 8 dereferenceable(8) ptr @_ZNSt11_Tuple_implILm0EJPN4absl12log_internal10LogMessage14LogMessageDataESt14default_deleteIS3_EEE7_M_headERKS7_(ptr noundef nonnull align 8 dereferenceable(8) %3) #24
  ret ptr %4
}

; Function Attrs: mustprogress nounwind uwtable
define linkonce_odr dso_local noundef nonnull align 8 dereferenceable(8) ptr @_ZSt3getILm0EJPN4absl12log_internal10LogMessage14LogMessageDataESt14default_deleteIS3_EEERKNSt13tuple_elementIXT_ESt5tupleIJDpT0_EEE4typeERKSB_(ptr noundef nonnull align 8 dereferenceable(8) %0) #3 comdat {
  %2 = alloca ptr, align 8
  store ptr %0, ptr %2, align 8, !tbaa !246
  %3 = load ptr, ptr %2, align 8, !tbaa !246
  %4 = call noundef nonnull align 8 dereferenceable(8) ptr @_ZSt12__get_helperILm0EPN4absl12log_internal10LogMessage14LogMessageDataEJSt14default_deleteIS3_EEERKT0_RKSt11_Tuple_implIXT_EJS7_DpT1_EE(ptr noundef nonnull align 8 dereferenceable(8) %3) #24
  ret ptr %4
}

; Function Attrs: mustprogress nounwind uwtable
define linkonce_odr dso_local noundef ptr @_ZNKSt15__uniq_ptr_implIN4absl12log_internal10LogMessage14LogMessageDataESt14default_deleteIS3_EE6_M_ptrEv(ptr noundef nonnull align 8 dereferenceable(8) %0) #3 comdat align 2 {
  %2 = alloca ptr, align 8
  store ptr %0, ptr %2, align 8, !tbaa !244
  %3 = load ptr, ptr %2, align 8
  %4 = getelementptr inbounds nuw %"class.std::__uniq_ptr_impl", ptr %3, i32 0, i32 0
  %5 = call noundef nonnull align 8 dereferenceable(8) ptr @_ZSt3getILm0EJPN4absl12log_internal10LogMessage14LogMessageDataESt14default_deleteIS3_EEERKNSt13tuple_elementIXT_ESt5tupleIJDpT0_EEE4typeERKSB_(ptr noundef nonnull align 8 dereferenceable(8) %4) #24
  %6 = load ptr, ptr %5, align 8, !tbaa !62
  ret ptr %6
}

; Function Attrs: mustprogress nounwind uwtable
define linkonce_odr dso_local noundef ptr @_ZNKSt10unique_ptrIN4absl12log_internal10LogMessage14LogMessageDataESt14default_deleteIS3_EE3getEv(ptr noundef nonnull align 8 dereferenceable(8) %0) #3 comdat align 2 {
  %2 = alloca ptr, align 8
  store ptr %0, ptr %2, align 8, !tbaa !14
  %3 = load ptr, ptr %2, align 8
  %4 = getelementptr inbounds nuw %"class.std::unique_ptr", ptr %3, i32 0, i32 0
  %5 = call noundef ptr @_ZNKSt15__uniq_ptr_implIN4absl12log_internal10LogMessage14LogMessageDataESt14default_deleteIS3_EE6_M_ptrEv(ptr noundef nonnull align 8 dereferenceable(8) %4) #24
  ret ptr %5
}

; Function Attrs: mustprogress uwtable
define available_externally noundef nonnull align 8 dereferenceable(8) ptr @_ZNSolsEPFRSoS_E(ptr noundef nonnull align 8 dereferenceable(8) %0, ptr noundef %1) #0 align 2 {
  %3 = alloca ptr, align 8
  %4 = alloca ptr, align 8
  store ptr %0, ptr %3, align 8, !tbaa !16
  store ptr %1, ptr %4, align 8, !tbaa !45
  %5 = load ptr, ptr %3, align 8
  %6 = load ptr, ptr %4, align 8, !tbaa !45
  %7 = call noundef nonnull align 8 dereferenceable(8) ptr %6(ptr noundef nonnull align 8 dereferenceable(8) %5)
  ret ptr %7
}

; Function Attrs: mustprogress nounwind uwtable
define linkonce_odr dso_local noundef ptr @_ZNKSt10unique_ptrIN4absl12log_internal10LogMessage14LogMessageDataESt14default_deleteIS3_EEptEv(ptr noundef nonnull align 8 dereferenceable(8) %0) #3 comdat align 2 {
  %2 = alloca ptr, align 8
  store ptr %0, ptr %2, align 8, !tbaa !14
  %3 = load ptr, ptr %2, align 8
  %4 = call noundef ptr @_ZNKSt10unique_ptrIN4absl12log_internal10LogMessage14LogMessageDataESt14default_deleteIS3_EE3getEv(ptr noundef nonnull align 8 dereferenceable(8) %3) #24
  ret ptr %4
}

; Function Attrs: mustprogress nounwind uwtable
define linkonce_odr dso_local noundef nonnull align 8 dereferenceable(30576) ptr @_ZNKSt10unique_ptrIN4absl12log_internal10LogMessage14LogMessageDataESt14default_deleteIS3_EEdeEv(ptr noundef nonnull align 8 dereferenceable(8) %0) #3 comdat align 2 {
  %2 = alloca ptr, align 8
  store ptr %0, ptr %2, align 8, !tbaa !14
  %3 = load ptr, ptr %2, align 8
  br label %4

4:                                                ; preds = %1
  br label %5

5:                                                ; preds = %4
  br label %6

6:                                                ; preds = %5
  %7 = call noundef ptr @_ZNKSt10unique_ptrIN4absl12log_internal10LogMessage14LogMessageDataESt14default_deleteIS3_EE3getEv(ptr noundef nonnull align 8 dereferenceable(8) %3) #24
  ret ptr %7
}

; Function Attrs: mustprogress uwtable
define dso_local noundef nonnull align 8 dereferenceable(16) ptr @_ZN4absl12log_internal10LogMessagelsEPFRSoS2_E(ptr noundef nonnull align 8 dereferenceable(16) %0, ptr noundef %1) #0 align 2 personality ptr @__gxx_personality_v0 {
  %3 = alloca ptr, align 8
  %4 = alloca ptr, align 8
  %5 = alloca %"class.absl::log_internal::LogMessage::OstreamView", align 8
  %6 = alloca ptr, align 8
  %7 = alloca i32, align 4
  store ptr %0, ptr %3, align 8, !tbaa !9
  store ptr %1, ptr %4, align 8, !tbaa !45
  %8 = load ptr, ptr %3, align 8
  call void @llvm.lifetime.start.p0(i64 120, ptr %5) #24
  %9 = getelementptr inbounds nuw %"class.absl::log_internal::LogMessage", ptr %8, i32 0, i32 1
  %10 = call noundef nonnull align 8 dereferenceable(30576) ptr @_ZNKSt10unique_ptrIN4absl12log_internal10LogMessage14LogMessageDataESt14default_deleteIS3_EEdeEv(ptr noundef nonnull align 8 dereferenceable(8) %9) #24
  call void @_ZN4absl12log_internal10LogMessage11OstreamViewC1ERNS1_14LogMessageDataE(ptr noundef nonnull align 8 dereferenceable(120) %5, ptr noundef nonnull align 8 dereferenceable(30576) %10)
  %11 = getelementptr inbounds nuw %"class.absl::log_internal::LogMessage", ptr %8, i32 0, i32 1
  %12 = call noundef ptr @_ZNKSt10unique_ptrIN4absl12log_internal10LogMessage14LogMessageDataESt14default_deleteIS3_EEptEv(ptr noundef nonnull align 8 dereferenceable(8) %11) #24
  %13 = getelementptr inbounds nuw %"struct.absl::log_internal::LogMessage::LogMessageData", ptr %12, i32 0, i32 6
  %14 = load ptr, ptr %4, align 8, !tbaa !45
  %15 = invoke noundef nonnull align 8 dereferenceable(8) ptr @_ZNSolsEPFRSoS_E(ptr noundef nonnull align 8 dereferenceable(8) %13, ptr noundef %14)
          to label %16 unwind label %17

16:                                               ; preds = %2
  call void @_ZN4absl12log_internal10LogMessage11OstreamViewD1Ev(ptr noundef nonnull align 8 dereferenceable(120) %5) #24
  call void @llvm.lifetime.end.p0(i64 120, ptr %5) #24
  ret ptr %8

17:                                               ; preds = %2
  %18 = landingpad { ptr, i32 }
          cleanup
  %19 = extractvalue { ptr, i32 } %18, 0
  store ptr %19, ptr %6, align 8
  %20 = extractvalue { ptr, i32 } %18, 1
  store i32 %20, ptr %7, align 4
  call void @_ZN4absl12log_internal10LogMessage11OstreamViewD1Ev(ptr noundef nonnull align 8 dereferenceable(120) %5) #24
  call void @llvm.lifetime.end.p0(i64 120, ptr %5) #24
  br label %21

21:                                               ; preds = %17
  %22 = load ptr, ptr %6, align 8
  %23 = load i32, ptr %7, align 4
  %24 = insertvalue { ptr, i32 } poison, ptr %22, 0
  %25 = insertvalue { ptr, i32 } %24, i32 %23, 1
  resume { ptr, i32 } %25
}