; Function Attrs: mustprogress uwtable
define dso_local noundef nonnull align 8 dereferenceable(16) ptr @_ZN4absl12log_internal10LogMessagelsEPFRSoS2_E(ptr noundef nonnull readonly returned align 8 captures(ret: address, provenance) dereferenceable(16) %0, ptr noundef readonly captures(none) %1) local_unnamed_addr #0 align 2 personality ptr @__gxx_personality_v0 {
  %3 = alloca %"class.absl::log_internal::LogMessage::OstreamView", align 8
  call void @llvm.lifetime.start.p0(i64 120, ptr nonnull %3) #28
  %4 = getelementptr inbounds nuw i8, ptr %0, i64 8
  %5 = load ptr, ptr %4, align 8, !tbaa !4
  call void @_ZN4absl12log_internal10LogMessage11OstreamViewC2ERNS1_14LogMessageDataE(ptr noundef nonnull align 8 dereferenceable(120) %3, ptr noundef nonnull align 8 dereferenceable(30576) %5)
  %6 = load ptr, ptr %4, align 8, !tbaa !4
  %7 = getelementptr inbounds nuw i8, ptr %6, i64 288
  %8 = invoke noundef nonnull align 8 dereferenceable(8) ptr %1(ptr noundef nonnull align 8 dereferenceable(8) %7)
          to label %_ZNSolsEPFRSoS_E.exit unwind label %9

_ZNSolsEPFRSoS_E.exit:                            ; preds = %2
  call void @_ZN4absl12log_internal10LogMessage11OstreamViewD2Ev(ptr noundef nonnull align 8 dereferenceable(120) %3) #28
  call void @llvm.lifetime.end.p0(i64 120, ptr nonnull %3) #28
  ret ptr %0

9:                                                ; preds = %2
  %10 = landingpad { ptr, i32 }
          cleanup
  call void @_ZN4absl12log_internal10LogMessage11OstreamViewD2Ev(ptr noundef nonnull align 8 dereferenceable(120) %3) #28
  call void @llvm.lifetime.end.p0(i64 120, ptr nonnull %3) #28
  resume { ptr, i32 } %10
}